target datalayout = "e-m:e-p270:32:32-p271:32:32-p272:64:64-i64:64-i128:128-f80:128-n8:16:32:64-S128"
target triple = "x86_64-pc-linux-gnu"

%struct.gmx_ana_selmethod_t = type { ptr, i32, i32, i32, ptr, ptr, ptr, ptr, ptr, ptr, ptr, ptr, ptr, %struct.gmx_ana_selmethod_help_t }
%struct.gmx_ana_selmethod_help_t = type { ptr, ptr, i32, ptr }
%struct.gmx_ana_selparam_t = type { ptr, %struct.gmx_ana_selvalue_t, ptr, i32 }
%struct.gmx_ana_selvalue_t = type { i32, i32, %union.anon, i32 }
%union.anon = type { ptr }

@.str.5 = private unnamed_addr constant [35 x i8] c"error: evaluation function missing\00", align 1
@.str.31 = private unnamed_addr constant [70 x i8] c"error: init_data should be provided because the method has parameters\00", align 1
@.str.32 = private unnamed_addr constant [55 x i8] c"warning: free is not used because of missing init_data\00", align 1
@.str.33 = private unnamed_addr constant [67 x i8] c"error: outinit should be provided because the method has POS_VALUE\00", align 1
@.str.34 = private unnamed_addr constant [73 x i8] c"error: outinit should be provided because the method has SMETH_VARNUMVAL\00", align 1
@.str.35 = private unnamed_addr constant [55 x i8] c"warning: pupdate not used because the method is static\00", align 1
@.str.36 = private unnamed_addr constant [31 x i8] c"error: init should be provided\00", align 1

; Function Attrs: mustprogress uwtable
define internal noundef zeroext i1 @_ZL15check_callbacksP8_IO_FILEP19gmx_ana_selmethod_t(ptr noundef %0, ptr noundef %1) #0 {
  %3 = alloca ptr, align 8
  %4 = alloca ptr, align 8
  %5 = alloca i8, align 1
  %6 = alloca i8, align 1
  %7 = alloca i32, align 4
  store ptr %0, ptr %3, align 8, !tbaa !21
  store ptr %1, ptr %4, align 8, !tbaa !11
  call void @llvm.lifetime.start.p0(i64 1, ptr %5) #15
  store i8 1, ptr %5, align 1, !tbaa !23
  call void @llvm.lifetime.start.p0(i64 1, ptr %6) #15
  call void @llvm.lifetime.start.p0(i64 4, ptr %7) #15
  %8 = load ptr, ptr %4, align 8, !tbaa !11
  %9 = getelementptr inbounds nuw %struct.gmx_ana_selmethod_t, ptr %8, i32 0, i32 3
  %10 = load i32, ptr %9, align 8, !tbaa !33
  %11 = icmp sgt i32 %10, 0
  br i1 %11, label %12, label %22

12:                                               ; preds = %2
  %13 = load ptr, ptr %4, align 8, !tbaa !11
  %14 = getelementptr inbounds nuw %struct.gmx_ana_selmethod_t, ptr %13, i32 0, i32 5
  %15 = load ptr, ptr %14, align 8, !tbaa !53
  %16 = icmp ne ptr %15, null
  br i1 %16, label %22, label %17

17:                                               ; preds = %12
  %18 = load ptr, ptr %3, align 8, !tbaa !21
  %19 = load ptr, ptr %4, align 8, !tbaa !11
  %20 = getelementptr inbounds nuw %struct.gmx_ana_selmethod_t, ptr %19, i32 0, i32 0
  %21 = load ptr, ptr %20, align 8, !tbaa !32
  call void (ptr, ptr, ptr, ...) @_ZL12report_errorP8_IO_FILEPKcS2_z(ptr noundef %18, ptr noundef %21, ptr noundef @.str.31)
  store i8 0, ptr %5, align 1, !tbaa !23
  br label %22

22:                                               ; preds = %17, %12, %2
  %23 = load ptr, ptr %4, align 8, !tbaa !11
  %24 = getelementptr inbounds nuw %struct.gmx_ana_selmethod_t, ptr %23, i32 0, i32 9
  %25 = load ptr, ptr %24, align 8, !tbaa !54
  %26 = icmp ne ptr %25, null
  br i1 %26, label %27, label %37

27:                                               ; preds = %22
  %28 = load ptr, ptr %4, align 8, !tbaa !11
  %29 = getelementptr inbounds nuw %struct.gmx_ana_selmethod_t, ptr %28, i32 0, i32 5
  %30 = load ptr, ptr %29, align 8, !tbaa !53
  %31 = icmp ne ptr %30, null
  br i1 %31, label %37, label %32

32:                                               ; preds = %27
  %33 = load ptr, ptr %3, align 8, !tbaa !21
  %34 = load ptr, ptr %4, align 8, !tbaa !11
  %35 = getelementptr inbounds nuw %struct.gmx_ana_selmethod_t, ptr %34, i32 0, i32 0
  %36 = load ptr, ptr %35, align 8, !tbaa !32
  call void (ptr, ptr, ptr, ...) @_ZL12report_errorP8_IO_FILEPKcS2_z(ptr noundef %33, ptr noundef %36, ptr noundef @.str.32)
  br label %37

37:                                               ; preds = %32, %27, %22
  %38 = load ptr, ptr %4, align 8, !tbaa !11
  %39 = getelementptr inbounds nuw %struct.gmx_ana_selmethod_t, ptr %38, i32 0, i32 1
  %40 = load i32, ptr %39, align 8, !tbaa !31
  %41 = icmp eq i32 %40, 4
  br i1 %41, label %42, label %52

42:                                               ; preds = %37
  %43 = load ptr, ptr %4, align 8, !tbaa !11
  %44 = getelementptr inbounds nuw %struct.gmx_ana_selmethod_t, ptr %43, i32 0, i32 8
  %45 = load ptr, ptr %44, align 8, !tbaa !55
  %46 = icmp ne ptr %45, null
  br i1 %46, label %52, label %47

47:                                               ; preds = %42
  %48 = load ptr, ptr %3, align 8, !tbaa !21
  %49 = load ptr, ptr %4, align 8, !tbaa !11
  %50 = getelementptr inbounds nuw %struct.gmx_ana_selmethod_t, ptr %49, i32 0, i32 0
  %51 = load ptr, ptr %50, align 8, !tbaa !32
  call void (ptr, ptr, ptr, ...) @_ZL12report_errorP8_IO_FILEPKcS2_z(ptr noundef %48, ptr noundef %51, ptr noundef @.str.33)
  store i8 0, ptr %5, align 1, !tbaa !23
  br label %52

52:                                               ; preds = %47, %42, %37
  %53 = load ptr, ptr %4, align 8, !tbaa !11
  %54 = getelementptr inbounds nuw %struct.gmx_ana_selmethod_t, ptr %53, i32 0, i32 2
  %55 = load i32, ptr %54, align 4, !tbaa !13
  %56 = and i32 %55, 16
  %57 = icmp ne i32 %56, 0
  br i1 %57, label %58, label %68

58:                                               ; preds = %52
  %59 = load ptr, ptr %4, align 8, !tbaa !11
  %60 = getelementptr inbounds nuw %struct.gmx_ana_selmethod_t, ptr %59, i32 0, i32 8
  %61 = load ptr, ptr %60, align 8, !tbaa !55
  %62 = icmp ne ptr %61, null
  br i1 %62, label %68, label %63

63:                                               ; preds = %58
  %64 = load ptr, ptr %3, align 8, !tbaa !21
  %65 = load ptr, ptr %4, align 8, !tbaa !11
  %66 = getelementptr inbounds nuw %struct.gmx_ana_selmethod_t, ptr %65, i32 0, i32 0
  %67 = load ptr, ptr %66, align 8, !tbaa !32
  call void (ptr, ptr, ptr, ...) @_ZL12report_errorP8_IO_FILEPKcS2_z(ptr noundef %64, ptr noundef %67, ptr noundef @.str.34)
  store i8 0, ptr %5, align 1, !tbaa !23
  br label %68

68:                                               ; preds = %63, %58, %52
  %69 = load ptr, ptr %4, align 8, !tbaa !11
  %70 = getelementptr inbounds nuw %struct.gmx_ana_selmethod_t, ptr %69, i32 0, i32 2
  %71 = load i32, ptr %70, align 4, !tbaa !13
  %72 = and i32 %71, 256
  %73 = icmp ne i32 %72, 0
  br i1 %73, label %93, label %74

74:                                               ; preds = %68
  %75 = load ptr, ptr %4, align 8, !tbaa !11
  %76 = getelementptr inbounds nuw %struct.gmx_ana_selmethod_t, ptr %75, i32 0, i32 12
  %77 = load ptr, ptr %76, align 8, !tbaa !36
  %78 = icmp ne ptr %77, null
  br i1 %78, label %79, label %92

79:                                               ; preds = %74
  %80 = load ptr, ptr %4, align 8, !tbaa !11
  %81 = getelementptr inbounds nuw %struct.gmx_ana_selmethod_t, ptr %80, i32 0, i32 2
  %82 = load i32, ptr %81, align 4, !tbaa !13
  %83 = and i32 %82, 4
  %84 = icmp ne i32 %83, 0
  br i1 %84, label %92, label %85

85:                                               ; preds = %79
  %86 = load ptr, ptr %3, align 8, !tbaa !21
  %87 = load ptr, ptr %4, align 8, !tbaa !11
  %88 = getelementptr inbounds nuw %struct.gmx_ana_selmethod_t, ptr %87, i32 0, i32 0
  %89 = load ptr, ptr %88, align 8, !tbaa !32
  call void (ptr, ptr, ptr, ...) @_ZL12report_errorP8_IO_FILEPKcS2_z(ptr noundef %86, ptr noundef %89, ptr noundef @.str.35)
  %90 = load ptr, ptr %4, align 8, !tbaa !11
  %91 = getelementptr inbounds nuw %struct.gmx_ana_selmethod_t, ptr %90, i32 0, i32 12
  store ptr null, ptr %91, align 8, !tbaa !36
  br label %92

92:                                               ; preds = %85, %79, %74
  br label %93

93:                                               ; preds = %92, %68
  %94 = load ptr, ptr %4, align 8, !tbaa !11
  %95 = getelementptr inbounds nuw %struct.gmx_ana_selmethod_t, ptr %94, i32 0, i32 1
  %96 = load i32, ptr %95, align 8, !tbaa !31
  %97 = icmp ne i32 %96, 0
  br i1 %97, label %98, label %113

98:                                               ; preds = %93
  %99 = load ptr, ptr %4, align 8, !tbaa !11
  %100 = getelementptr inbounds nuw %struct.gmx_ana_selmethod_t, ptr %99, i32 0, i32 11
  %101 = load ptr, ptr %100, align 8, !tbaa !35
  %102 = icmp ne ptr %101, null
  br i1 %102, label %113, label %103

103:                                              ; preds = %98
  %104 = load ptr, ptr %4, align 8, !tbaa !11
  %105 = getelementptr inbounds nuw %struct.gmx_ana_selmethod_t, ptr %104, i32 0, i32 12
  %106 = load ptr, ptr %105, align 8, !tbaa !36
  %107 = icmp ne ptr %106, null
  br i1 %107, label %113, label %108

108:                                              ; preds = %103
  %109 = load ptr, ptr %3, align 8, !tbaa !21
  %110 = load ptr, ptr %4, align 8, !tbaa !11
  %111 = getelementptr inbounds nuw %struct.gmx_ana_selmethod_t, ptr %110, i32 0, i32 0
  %112 = load ptr, ptr %111, align 8, !tbaa !32
  call void (ptr, ptr, ptr, ...) @_ZL12report_errorP8_IO_FILEPKcS2_z(ptr noundef %109, ptr noundef %112, ptr noundef @.str.5)
  store i8 0, ptr %5, align 1, !tbaa !23
  br label %113

113:                                              ; preds = %108, %103, %98, %93
  store i8 0, ptr %6, align 1, !tbaa !23
  store i32 0, ptr %7, align 4, !tbaa !37
  br label %114

114:                                              ; preds = %144, %113
  %115 = load i32, ptr %7, align 4, !tbaa !37
  %116 = load ptr, ptr %4, align 8, !tbaa !11
  %117 = getelementptr inbounds nuw %struct.gmx_ana_selmethod_t, ptr %116, i32 0, i32 3
  %118 = load i32, ptr %117, align 8, !tbaa !33
  %119 = icmp slt i32 %115, %118
  br i1 %119, label %120, label %147

120:                                              ; preds = %114
  %121 = load ptr, ptr %4, align 8, !tbaa !11
  %122 = getelementptr inbounds nuw %struct.gmx_ana_selmethod_t, ptr %121, i32 0, i32 4
  %123 = load ptr, ptr %122, align 8, !tbaa !34
  %124 = load i32, ptr %7, align 4, !tbaa !37
  %125 = sext i32 %124 to i64
  %126 = getelementptr inbounds %struct.gmx_ana_selparam_t, ptr %123, i64 %125
  %127 = getelementptr inbounds nuw %struct.gmx_ana_selparam_t, ptr %126, i32 0, i32 1
  %128 = getelementptr inbounds nuw %struct.gmx_ana_selvalue_t, ptr %127, i32 0, i32 0
  %129 = load i32, ptr %128, align 8, !tbaa !46
  %130 = icmp ne i32 %129, 4
  br i1 %130, label %131, label %143

131:                                              ; preds = %120
  %132 = load ptr, ptr %4, align 8, !tbaa !11
  %133 = getelementptr inbounds nuw %struct.gmx_ana_selmethod_t, ptr %132, i32 0, i32 4
  %134 = load ptr, ptr %133, align 8, !tbaa !34
  %135 = load i32, ptr %7, align 4, !tbaa !37
  %136 = sext i32 %135 to i64
  %137 = getelementptr inbounds %struct.gmx_ana_selparam_t, ptr %134, i64 %136
  %138 = getelementptr inbounds nuw %struct.gmx_ana_selparam_t, ptr %137, i32 0, i32 3
  %139 = load i32, ptr %138, align 8, !tbaa !45
  %140 = and i32 %139, 48
  %141 = icmp ne i32 %140, 0
  br i1 %141, label %142, label %143

142:                                              ; preds = %131
  store i8 1, ptr %6, align 1, !tbaa !23
  br label %143

143:                                              ; preds = %142, %131, %120
  br label %144

144:                                              ; preds = %143
  %145 = load i32, ptr %7, align 4, !tbaa !37
  %146 = add nsw i32 %145, 1
  store i32 %146, ptr %7, align 4, !tbaa !37
  br label %114, !llvm.loop !56

147:                                              ; preds = %114
  %148 = load i8, ptr %6, align 1, !tbaa !23, !range !25, !noundef !26
  %149 = trunc i8 %148 to i1
  br i1 %149, label %150, label %160

150:                                              ; preds = %147
  %151 = load ptr, ptr %4, align 8, !tbaa !11
  %152 = getelementptr inbounds nuw %struct.gmx_ana_selmethod_t, ptr %151, i32 0, i32 7
  %153 = load ptr, ptr %152, align 8, !tbaa !57
  %154 = icmp ne ptr %153, null
  br i1 %154, label %160, label %155

155:                                              ; preds = %150
  %156 = load ptr, ptr %3, align 8, !tbaa !21
  %157 = load ptr, ptr %4, align 8, !tbaa !11
  %158 = getelementptr inbounds nuw %struct.gmx_ana_selmethod_t, ptr %157, i32 0, i32 0
  %159 = load ptr, ptr %158, align 8, !tbaa !32
  call void (ptr, ptr, ptr, ...) @_ZL12report_errorP8_IO_FILEPKcS2_z(ptr noundef %156, ptr noundef %159, ptr noundef @.str.36)
  store i8 0, ptr %5, align 1, !tbaa !23
  br label %160

160:                                              ; preds = %155, %150, %147
  %161 = load i8, ptr %5, align 1, !tbaa !23, !range !25, !noundef !26
  %162 = trunc i8 %161 to i1
  call void @llvm.lifetime.end.p0(i64 4, ptr %7) #15
  call void @llvm.lifetime.end.p0(i64 1, ptr %6) #15
  call void @llvm.lifetime.end.p0(i64 1, ptr %5) #15
  ret i1 %162
}