; Function Attrs: mustprogress nofree nounwind uwtable
define internal fastcc noundef zeroext i1 @_ZL15check_callbacksP8_IO_FILEP19gmx_ana_selmethod_t(ptr noundef %0, ptr noundef captures(none) %1) unnamed_addr #4 {
  %3 = getelementptr inbounds nuw i8, ptr %1, i64 16
  %4 = load i32, ptr %3, align 8, !tbaa !20
  %5 = icmp sgt i32 %4, 0
  br i1 %5, label %6, label %11

6:                                                ; preds = %2
  %7 = getelementptr inbounds nuw i8, ptr %1, i64 32
  %8 = load ptr, ptr %7, align 8, !tbaa !47
  %.not = icmp eq ptr %8, null
  br i1 %.not, label %9, label %11

9:                                                ; preds = %6
  %10 = load ptr, ptr %1, align 8, !tbaa !19
  tail call void (ptr, ptr, ptr, ...) @_ZL12report_errorP8_IO_FILEPKcS2_z(ptr noundef %0, ptr noundef %10, ptr noundef nonnull @.str.31)
  br label %11

11:                                               ; preds = %9, %6, %2
  %.039 = phi i1 [ true, %6 ], [ false, %9 ], [ true, %2 ]
  %12 = getelementptr inbounds nuw i8, ptr %1, i64 64
  %13 = load ptr, ptr %12, align 8, !tbaa !48
  %.not41 = icmp eq ptr %13, null
  br i1 %.not41, label %19, label %14

14:                                               ; preds = %11
  %15 = getelementptr inbounds nuw i8, ptr %1, i64 32
  %16 = load ptr, ptr %15, align 8, !tbaa !47
  %.not42 = icmp eq ptr %16, null
  br i1 %.not42, label %17, label %19

17:                                               ; preds = %14
  %18 = load ptr, ptr %1, align 8, !tbaa !19
  tail call void (ptr, ptr, ptr, ...) @_ZL12report_errorP8_IO_FILEPKcS2_z(ptr noundef %0, ptr noundef %18, ptr noundef nonnull @.str.32)
  br label %19

19:                                               ; preds = %17, %14, %11
  %20 = getelementptr inbounds nuw i8, ptr %1, i64 8
  %21 = load i32, ptr %20, align 8, !tbaa !18
  %22 = icmp eq i32 %21, 4
  br i1 %22, label %23, label %28

23:                                               ; preds = %19
  %24 = getelementptr inbounds nuw i8, ptr %1, i64 56
  %25 = load ptr, ptr %24, align 8, !tbaa !49
  %.not43 = icmp eq ptr %25, null
  br i1 %.not43, label %26, label %28

26:                                               ; preds = %23
  %27 = load ptr, ptr %1, align 8, !tbaa !19
  tail call void (ptr, ptr, ptr, ...) @_ZL12report_errorP8_IO_FILEPKcS2_z(ptr noundef %0, ptr noundef %27, ptr noundef nonnull @.str.33)
  br label %28

28:                                               ; preds = %26, %23, %19
  %.140 = phi i1 [ %.039, %23 ], [ false, %26 ], [ %.039, %19 ]
  %29 = getelementptr inbounds nuw i8, ptr %1, i64 12
  %30 = load i32, ptr %29, align 4, !tbaa !4
  %31 = and i32 %30, 16
  %.not44 = icmp eq i32 %31, 0
  br i1 %.not44, label %37, label %32

32:                                               ; preds = %28
  %33 = getelementptr inbounds nuw i8, ptr %1, i64 56
  %34 = load ptr, ptr %33, align 8, !tbaa !49
  %.not45 = icmp eq ptr %34, null
  br i1 %.not45, label %35, label %37

35:                                               ; preds = %32
  %36 = load ptr, ptr %1, align 8, !tbaa !19
  tail call void (ptr, ptr, ptr, ...) @_ZL12report_errorP8_IO_FILEPKcS2_z(ptr noundef %0, ptr noundef %36, ptr noundef nonnull @.str.34)
  %.pre = load i32, ptr %29, align 4, !tbaa !4
  br label %37

37:                                               ; preds = %35, %32, %28
  %38 = phi i32 [ %30, %32 ], [ %.pre, %35 ], [ %30, %28 ]
  %.2 = phi i1 [ %.140, %32 ], [ false, %35 ], [ %.140, %28 ]
  %39 = and i32 %38, 256
  %.not46 = icmp eq i32 %39, 0
  br i1 %.not46, label %40, label %46

40:                                               ; preds = %37
  %41 = getelementptr inbounds nuw i8, ptr %1, i64 88
  %42 = load ptr, ptr %41, align 8, !tbaa !23
  %.not47 = icmp ne ptr %42, null
  %43 = and i32 %38, 4
  %.not48 = icmp eq i32 %43, 0
  %or.cond = and i1 %.not48, %.not47
  br i1 %or.cond, label %44, label %46

44:                                               ; preds = %40
  %45 = load ptr, ptr %1, align 8, !tbaa !19
  tail call void (ptr, ptr, ptr, ...) @_ZL12report_errorP8_IO_FILEPKcS2_z(ptr noundef %0, ptr noundef %45, ptr noundef nonnull @.str.35)
  store ptr null, ptr %41, align 8, !tbaa !23
  br label %46

46:                                               ; preds = %40, %44, %37
  %47 = load i32, ptr %20, align 8, !tbaa !18
  %.not49 = icmp eq i32 %47, 0
  br i1 %.not49, label %56, label %48

48:                                               ; preds = %46
  %49 = getelementptr inbounds nuw i8, ptr %1, i64 80
  %50 = load ptr, ptr %49, align 8, !tbaa !22
  %.not50 = icmp eq ptr %50, null
  br i1 %.not50, label %51, label %56

51:                                               ; preds = %48
  %52 = getelementptr inbounds nuw i8, ptr %1, i64 88
  %53 = load ptr, ptr %52, align 8, !tbaa !23
  %.not51 = icmp eq ptr %53, null
  br i1 %.not51, label %54, label %56

54:                                               ; preds = %51
  %55 = load ptr, ptr %1, align 8, !tbaa !19
  tail call void (ptr, ptr, ptr, ...) @_ZL12report_errorP8_IO_FILEPKcS2_z(ptr noundef %0, ptr noundef %55, ptr noundef nonnull @.str.5)
  br label %56

56:                                               ; preds = %54, %51, %48, %46
  %.3 = phi i1 [ %.2, %48 ], [ %.2, %51 ], [ false, %54 ], [ %.2, %46 ]
  %57 = load i32, ptr %3, align 8, !tbaa !20
  %58 = icmp sgt i32 %57, 0
  br i1 %58, label %.lr.ph, label %.critedge

.lr.ph:                                           ; preds = %56
  %59 = getelementptr inbounds nuw i8, ptr %1, i64 24
  %60 = load ptr, ptr %59, align 8, !tbaa !21
  %wide.trip.count = zext nneg i32 %57 to i64
  br label %61

61:                                               ; preds = %.lr.ph, %69
  %indvars.iv = phi i64 [ 0, %.lr.ph ], [ %indvars.iv.next, %69 ]
  %.03855 = phi i1 [ false, %.lr.ph ], [ %.1, %69 ]
  %62 = getelementptr inbounds nuw %struct.gmx_ana_selparam_t, ptr %60, i64 %indvars.iv
  %63 = getelementptr inbounds nuw i8, ptr %62, i64 8
  %64 = load i32, ptr %63, align 8, !tbaa !33
  %.not53 = icmp eq i32 %64, 4
  br i1 %.not53, label %69, label %65

65:                                               ; preds = %61
  %66 = getelementptr inbounds nuw i8, ptr %62, i64 40
  %67 = load i32, ptr %66, align 8, !tbaa !32
  %68 = and i32 %67, 48
  %.not54 = icmp ne i32 %68, 0
  %spec.select = select i1 %.not54, i1 true, i1 %.03855
  br label %69

69:                                               ; preds = %65, %61
  %.1 = phi i1 [ %.03855, %61 ], [ %spec.select, %65 ]
  %indvars.iv.next = add nuw nsw i64 %indvars.iv, 1
  %exitcond.not = icmp eq i64 %indvars.iv.next, %wide.trip.count
  br i1 %exitcond.not, label %._crit_edge, label %61, !llvm.loop !50

._crit_edge:                                      ; preds = %69
  br i1 %.1, label %70, label %.critedge

70:                                               ; preds = %._crit_edge
  %71 = getelementptr inbounds nuw i8, ptr %1, i64 48
  %72 = load ptr, ptr %71, align 8, !tbaa !51
  %.not52 = icmp eq ptr %72, null
  br i1 %.not52, label %73, label %.critedge

73:                                               ; preds = %70
  %74 = load ptr, ptr %1, align 8, !tbaa !19
  tail call void (ptr, ptr, ptr, ...) @_ZL12report_errorP8_IO_FILEPKcS2_z(ptr noundef %0, ptr noundef %74, ptr noundef nonnull @.str.36)
  br label %.critedge

.critedge:                                        ; preds = %56, %73, %70, %._crit_edge
  %.4 = phi i1 [ %.3, %70 ], [ false, %73 ], [ %.3, %._crit_edge ], [ %.3, %56 ]
  ret i1 %.4
}